target datalayout = "e-m:e-p270:32:32-p271:32:32-p272:64:64-i64:64-i128:128-f80:128-n8:16:32:64-S128"
target triple = "x86_64-pc-linux-gnu"

%struct._packet_info = type { ptr, ptr, i32, i32, %struct.nstime_t, %struct.nstime_t, %struct.nstime_t, i8, ptr, ptr, ptr, ptr, %struct._address, %struct._address, %struct._address, %struct._address, %struct._address, %struct._address, i32, ptr, i8, [3 x i8], %struct.anon, i32, i32, i32, i32, ptr, i8, ptr, ptr, i16, i16, i32, i32, i16, i32, i32, ptr, ptr, ptr, i8, i8, i16, i16, i16, i32, i16, i16, ptr, ptr, ptr, ptr, ptr, i32, i32 }
%struct.nstime_t = type { i64, i32 }
%struct._address = type { i32, i32, ptr, ptr }
%struct.anon = type { i8, [3 x i8] }
%struct._gvcp_conv_info_t = type { ptr, [512 x i32] }

@hf_gvcp_readmemcmd_bootstrap_register = internal global i32 0, align 4
@hf_gvcp_readmemcmd_count = internal global i32 0, align 4
@hf_gvcp_sc_gendc_descriptor_address_v2_2 = internal global i32 0, align 4
@hf_gvcp_sc_gendc_descriptor_size_v2_2 = internal global i32 0, align 4
@hf_gvcp_sc_gendc_flow_mapping_table_address_v2_2 = internal global i32 0, align 4
@hf_gvcp_sc_gendc_flow_mapping_table_size_v2_2 = internal global i32 0, align 4
@hf_gvcp_custom_memory_addr = internal global i32 0, align 4
@.str.747 = private unnamed_addr constant [20 x i8] c" [Unknown Register]\00", align 1
@.str.752 = private unnamed_addr constant [21 x i8] c" (0x%08X (%d) bytes)\00", align 1

; Function Attrs: null_pointer_is_valid sspstrong uwtable
define internal i32 @dissect_extended_bootstrap_register(i32 noundef %0, ptr noundef %1, ptr noundef %2, i32 noundef %3, i32 noundef %4) #0 {
  %6 = alloca i32, align 4
  %7 = alloca i32, align 4
  %8 = alloca ptr, align 8
  %9 = alloca ptr, align 8
  %10 = alloca i32, align 4
  %11 = alloca i32, align 4
  store i32 %0, ptr %7, align 4
  store ptr %1, ptr %8, align 8
  store ptr %2, ptr %9, align 8
  store i32 %3, ptr %10, align 4
  store i32 %4, ptr %11, align 4
  %12 = load i32, ptr %7, align 4
  switch i32 %12, label %37 [
    i32 0, label %13
    i32 4, label %19
    i32 8, label %25
    i32 12, label %31
  ]

13:                                               ; preds = %5
  %14 = load ptr, ptr %8, align 8
  %15 = load i32, ptr @hf_gvcp_sc_gendc_descriptor_address_v2_2, align 4
  %16 = load ptr, ptr %9, align 8
  %17 = load i32, ptr %10, align 4
  %18 = call ptr @proto_tree_add_item(ptr noundef %14, i32 noundef %15, ptr noundef %16, i32 noundef %17, i32 noundef 4, i32 noundef 0)
  br label %38

19:                                               ; preds = %5
  %20 = load ptr, ptr %8, align 8
  %21 = load i32, ptr @hf_gvcp_sc_gendc_descriptor_size_v2_2, align 4
  %22 = load ptr, ptr %9, align 8
  %23 = load i32, ptr %10, align 4
  %24 = call ptr @proto_tree_add_item(ptr noundef %20, i32 noundef %21, ptr noundef %22, i32 noundef %23, i32 noundef 4, i32 noundef 0)
  br label %38

25:                                               ; preds = %5
  %26 = load ptr, ptr %8, align 8
  %27 = load i32, ptr @hf_gvcp_sc_gendc_flow_mapping_table_address_v2_2, align 4
  %28 = load ptr, ptr %9, align 8
  %29 = load i32, ptr %10, align 4
  %30 = call ptr @proto_tree_add_item(ptr noundef %26, i32 noundef %27, ptr noundef %28, i32 noundef %29, i32 noundef 4, i32 noundef 0)
  br label %38

31:                                               ; preds = %5
  %32 = load ptr, ptr %8, align 8
  %33 = load i32, ptr @hf_gvcp_sc_gendc_flow_mapping_table_size_v2_2, align 4
  %34 = load ptr, ptr %9, align 8
  %35 = load i32, ptr %10, align 4
  %36 = call ptr @proto_tree_add_item(ptr noundef %32, i32 noundef %33, ptr noundef %34, i32 noundef %35, i32 noundef 4, i32 noundef 0)
  br label %38

37:                                               ; preds = %5
  store i32 0, ptr %6, align 4
  br label %39

38:                                               ; preds = %31, %25, %19, %13
  store i32 1, ptr %6, align 4
  br label %39

39:                                               ; preds = %38, %37
  %40 = load i32, ptr %6, align 4
  ret i32 %40
}

; Function Attrs: nounwind null_pointer_is_valid sspstrong uwtable
define internal zeroext i1 @is_extended_bootstrap_address(ptr noundef %0, i32 noundef %1, ptr noundef %2) #6 {
  %4 = alloca i1, align 1
  %5 = alloca ptr, align 8
  %6 = alloca i32, align 4
  %7 = alloca ptr, align 8
  %8 = alloca i32, align 4
  %9 = alloca i32, align 4
  store ptr %0, ptr %5, align 8
  store i32 %1, ptr %6, align 4
  store ptr %2, ptr %7, align 8
  call void @llvm.lifetime.start.p0(i64 4, ptr %8) #7
  store i32 0, ptr %8, align 4
  store i32 0, ptr %8, align 4
  br label %10

10:                                               ; preds = %53, %3
  %11 = load i32, ptr %8, align 4
  %12 = icmp slt i32 %11, 512
  br i1 %12, label %13, label %56

13:                                               ; preds = %10
  %14 = load ptr, ptr %5, align 8
  %15 = getelementptr inbounds nuw %struct._gvcp_conv_info_t, ptr %14, i32 0, i32 1
  %16 = load i32, ptr %8, align 4
  %17 = sext i32 %16 to i64
  %18 = getelementptr [512 x i32], ptr %15, i64 0, i64 %17
  %19 = load i32, ptr %18, align 4
  %20 = icmp ne i32 %19, 0
  br i1 %20, label %21, label %52

21:                                               ; preds = %13
  %22 = load i32, ptr %6, align 4
  %23 = load ptr, ptr %5, align 8
  %24 = getelementptr inbounds nuw %struct._gvcp_conv_info_t, ptr %23, i32 0, i32 1
  %25 = load i32, ptr %8, align 4
  %26 = sext i32 %25 to i64
  %27 = getelementptr [512 x i32], ptr %24, i64 0, i64 %26
  %28 = load i32, ptr %27, align 4
  %29 = icmp uge i32 %22, %28
  br i1 %29, label %30, label %52

30:                                               ; preds = %21
  %31 = load i32, ptr %6, align 4
  %32 = load ptr, ptr %5, align 8
  %33 = getelementptr inbounds nuw %struct._gvcp_conv_info_t, ptr %32, i32 0, i32 1
  %34 = load i32, ptr %8, align 4
  %35 = sext i32 %34 to i64
  %36 = getelementptr [512 x i32], ptr %33, i64 0, i64 %35
  %37 = load i32, ptr %36, align 4
  %38 = add i32 %37, 12
  %39 = icmp ule i32 %31, %38
  br i1 %39, label %40, label %52

40:                                               ; preds = %30
  %41 = load ptr, ptr %7, align 8
  %42 = icmp ne ptr %41, null
  br i1 %42, label %43, label %51

43:                                               ; preds = %40
  %44 = load ptr, ptr %5, align 8
  %45 = getelementptr inbounds nuw %struct._gvcp_conv_info_t, ptr %44, i32 0, i32 1
  %46 = load i32, ptr %8, align 4
  %47 = sext i32 %46 to i64
  %48 = getelementptr [512 x i32], ptr %45, i64 0, i64 %47
  %49 = load i32, ptr %48, align 4
  %50 = load ptr, ptr %7, align 8
  store i32 %49, ptr %50, align 4
  br label %51

51:                                               ; preds = %43, %40
  store i1 true, ptr %4, align 1
  store i32 1, ptr %9, align 4
  br label %57

52:                                               ; preds = %30, %21, %13
  br label %53

53:                                               ; preds = %52
  %54 = load i32, ptr %8, align 4
  %55 = add i32 %54, 1
  store i32 %55, ptr %8, align 4
  br label %10, !llvm.loop !19

56:                                               ; preds = %10
  store i1 false, ptr %4, align 1
  store i32 1, ptr %9, align 4
  br label %57

57:                                               ; preds = %56, %51
  call void @llvm.lifetime.end.p0(i64 4, ptr %8) #7
  %58 = load i1, ptr %4, align 1
  ret i1 %58
}

; Function Attrs: null_pointer_is_valid sspstrong uwtable
define internal void @dissect_readmem_cmd(ptr noundef %0, ptr noundef %1, ptr noundef %2, i32 noundef %3, ptr noundef %4) #0 {
  %6 = alloca ptr, align 8
  %7 = alloca ptr, align 8
  %8 = alloca ptr, align 8
  %9 = alloca i32, align 4
  %10 = alloca ptr, align 8
  %11 = alloca i32, align 4
  %12 = alloca i16, align 2
  %13 = alloca i32, align 4
  %14 = alloca ptr, align 8
  %15 = alloca i32, align 4
  store ptr %0, ptr %6, align 8
  store ptr %1, ptr %7, align 8
  store ptr %2, ptr %8, align 8
  store i32 %3, ptr %9, align 4
  store ptr %4, ptr %10, align 8
  call void @llvm.lifetime.start.p0(i64 4, ptr %11) #7
  store i32 0, ptr %11, align 4
  call void @llvm.lifetime.start.p0(i64 2, ptr %12) #7
  store i16 0, ptr %12, align 2
  call void @llvm.lifetime.start.p0(i64 4, ptr %13) #7
  %16 = load i32, ptr %9, align 4
  store i32 %16, ptr %13, align 4
  %17 = load ptr, ptr %7, align 8
  %18 = load i32, ptr %13, align 4
  %19 = call i32 @tvb_get_ntohl(ptr noundef %17, i32 noundef %18)
  store i32 %19, ptr %11, align 4
  %20 = load ptr, ptr %7, align 8
  %21 = load i32, ptr %13, align 4
  %22 = add i32 %21, 6
  %23 = call zeroext i16 @tvb_get_ntohs(ptr noundef %20, i32 noundef %22)
  store i16 %23, ptr %12, align 2
  %24 = load ptr, ptr %8, align 8
  %25 = getelementptr inbounds nuw %struct._packet_info, ptr %24, i32 0, i32 1
  %26 = load ptr, ptr %25, align 8
  %27 = load i32, ptr %11, align 4
  %28 = load i16, ptr %12, align 2
  %29 = zext i16 %28 to i32
  call void (ptr, i32, ptr, ...) @col_append_fstr(ptr noundef %26, i32 noundef 25, ptr noundef @.str.752, i32 noundef %27, i32 noundef %29)
  %30 = load ptr, ptr %6, align 8
  %31 = icmp ne ptr %30, null
  br i1 %31, label %32, label %69

32:                                               ; preds = %5
  call void @llvm.lifetime.start.p0(i64 8, ptr %14) #7
  store ptr null, ptr %14, align 8
  %33 = load i32, ptr %11, align 4
  %34 = call ptr @try_val_to_str(i32 noundef %33, ptr noundef @bootstrapregisternames)
  %35 = icmp ne ptr %34, null
  br i1 %35, label %36, label %42

36:                                               ; preds = %32
  %37 = load ptr, ptr %6, align 8
  %38 = load i32, ptr @hf_gvcp_readmemcmd_bootstrap_register, align 4
  %39 = load ptr, ptr %7, align 8
  %40 = load i32, ptr %13, align 4
  %41 = call ptr @proto_tree_add_item(ptr noundef %37, i32 noundef %38, ptr noundef %39, i32 noundef %40, i32 noundef 4, i32 noundef 0)
  br label %62

42:                                               ; preds = %32
  call void @llvm.lifetime.start.p0(i64 4, ptr %15) #7
  store i32 0, ptr %15, align 4
  %43 = load ptr, ptr %10, align 8
  %44 = load i32, ptr %11, align 4
  %45 = call zeroext i1 @is_extended_bootstrap_address(ptr noundef %43, i32 noundef %44, ptr noundef %15)
  br i1 %45, label %46, label %54

46:                                               ; preds = %42
  %47 = load i32, ptr %11, align 4
  %48 = load i32, ptr %15, align 4
  %49 = sub i32 %47, %48
  %50 = load ptr, ptr %6, align 8
  %51 = load ptr, ptr %7, align 8
  %52 = load i32, ptr %13, align 4
  %53 = call i32 @dissect_extended_bootstrap_register(i32 noundef %49, ptr noundef %50, ptr noundef %51, i32 noundef %52, i32 noundef 4)
  br label %61

54:                                               ; preds = %42
  %55 = load ptr, ptr %6, align 8
  %56 = load i32, ptr @hf_gvcp_custom_memory_addr, align 4
  %57 = load ptr, ptr %7, align 8
  %58 = load i32, ptr %13, align 4
  %59 = call ptr @proto_tree_add_item(ptr noundef %55, i32 noundef %56, ptr noundef %57, i32 noundef %58, i32 noundef 4, i32 noundef 0)
  store ptr %59, ptr %14, align 8
  %60 = load ptr, ptr %14, align 8
  call void (ptr, ptr, ...) @proto_item_append_text(ptr noundef %60, ptr noundef @.str.747)
  br label %61

61:                                               ; preds = %54, %46
  call void @llvm.lifetime.end.p0(i64 4, ptr %15) #7
  br label %62

62:                                               ; preds = %61, %36
  %63 = load ptr, ptr %6, align 8
  %64 = load i32, ptr @hf_gvcp_readmemcmd_count, align 4
  %65 = load ptr, ptr %7, align 8
  %66 = load i32, ptr %13, align 4
  %67 = add i32 %66, 6
  %68 = call ptr @proto_tree_add_item(ptr noundef %63, i32 noundef %64, ptr noundef %65, i32 noundef %67, i32 noundef 2, i32 noundef 0)
  call void @llvm.lifetime.end.p0(i64 8, ptr %14) #7
  br label %69

69:                                               ; preds = %62, %5
  call void @llvm.lifetime.end.p0(i64 4, ptr %13) #7
  call void @llvm.lifetime.end.p0(i64 2, ptr %12) #7
  call void @llvm.lifetime.end.p0(i64 4, ptr %11) #7
  ret void
}