; Function Attrs: null_pointer_is_valid sspstrong uwtable
define internal fastcc void @dissect_readmem_cmd(ptr noundef %0, ptr noundef %1, ptr noundef readonly captures(none) %2, ptr noundef readonly captures(none) %3) unnamed_addr #0 {
  %5 = tail call i32 @tvb_get_ntohl(ptr noundef %1, i32 noundef 8)
  %6 = tail call zeroext i16 @tvb_get_ntohs(ptr noundef %1, i32 noundef 14)
  %7 = getelementptr inbounds nuw i8, ptr %2, i64 8
  %8 = load ptr, ptr %7, align 8
  %9 = zext i16 %6 to i32
  tail call void (ptr, i32, ptr, ...) @col_append_fstr(ptr noundef %8, i32 noundef 25, ptr noundef nonnull @.str.752, i32 noundef %5, i32 noundef %9)
  %.not = icmp eq ptr %0, null
  br i1 %.not, label %34, label %10

10:                                               ; preds = %4
  %11 = tail call ptr @try_val_to_str(i32 noundef %5, ptr noundef nonnull @bootstrapregisternames)
  %.not25 = icmp eq ptr %11, null
  br i1 %.not25, label %15, label %12

12:                                               ; preds = %10
  %13 = load i32, ptr @hf_gvcp_readmemcmd_bootstrap_register, align 4
  %14 = tail call ptr @proto_tree_add_item(ptr noundef nonnull %0, i32 noundef %13, ptr noundef %1, i32 noundef 8, i32 noundef 4, i32 noundef 0)
  br label %dissect_extended_bootstrap_register.exit

15:                                               ; preds = %10
  %16 = getelementptr inbounds nuw i8, ptr %3, i64 8
  br label %18

17:                                               ; preds = %18
  %indvars.iv.next.i = add nuw nsw i64 %indvars.iv.i, 1
  %exitcond.not.i = icmp eq i64 %indvars.iv.next.i, 512
  br i1 %exitcond.not.i, label %is_extended_bootstrap_address.exit, label %18, !llvm.loop !9

18:                                               ; preds = %17, %15
  %indvars.iv.i = phi i64 [ 0, %15 ], [ %indvars.iv.next.i, %17 ]
  %19 = getelementptr [512 x i32], ptr %16, i64 0, i64 %indvars.iv.i
  %20 = load i32, ptr %19, align 4
  %21 = add i32 %20, -1
  %or.cond.i = icmp ult i32 %21, %5
  %22 = add i32 %20, 12
  %.not19.i = icmp ule i32 %5, %22
  %or.cond21.not.i = and i1 %or.cond.i, %.not19.i
  br i1 %or.cond21.not.i, label %23, label %17

23:                                               ; preds = %18
  %24 = sub i32 %5, %20
  %25 = tail call i32 @llvm.fshl.i32(i32 %24, i32 %24, i32 30)
  %26 = icmp ult i32 %25, 4
  br i1 %26, label %switch.lookup, label %dissect_extended_bootstrap_register.exit

switch.lookup:                                    ; preds = %23
  %27 = zext nneg i32 %25 to i64
  %switch.gep = getelementptr inbounds nuw [4 x ptr], ptr @switch.table.dissect_readmem_ack, i64 0, i64 %27
  %switch.load = load ptr, ptr %switch.gep, align 8
  %28 = load i32, ptr %switch.load, align 4
  %29 = tail call ptr @proto_tree_add_item(ptr noundef nonnull %0, i32 noundef %28, ptr noundef %1, i32 noundef 8, i32 noundef 4, i32 noundef 0)
  br label %dissect_extended_bootstrap_register.exit

is_extended_bootstrap_address.exit:               ; preds = %17
  %30 = load i32, ptr @hf_gvcp_custom_memory_addr, align 4
  %31 = tail call ptr @proto_tree_add_item(ptr noundef nonnull %0, i32 noundef %30, ptr noundef %1, i32 noundef 8, i32 noundef 4, i32 noundef 0)
  tail call void (ptr, ptr, ...) @proto_item_append_text(ptr noundef %31, ptr noundef nonnull @.str.747)
  br label %dissect_extended_bootstrap_register.exit

dissect_extended_bootstrap_register.exit:         ; preds = %23, %is_extended_bootstrap_address.exit, %switch.lookup, %12
  %32 = load i32, ptr @hf_gvcp_readmemcmd_count, align 4
  %33 = tail call ptr @proto_tree_add_item(ptr noundef nonnull %0, i32 noundef %32, ptr noundef %1, i32 noundef 14, i32 noundef 2, i32 noundef 0)
  br label %34

34:                                               ; preds = %dissect_extended_bootstrap_register.exit, %4
  ret void
}